; Function Attrs: mustprogress uwtable
define hidden void @_ZN4cvc58internal6theory11quantifiers5ieval9QuantInfo13setNoConflictEv(ptr noundef nonnull align 8 dereferenceable(280) %this) local_unnamed_addr #3 align 2 {
entry:
  %d_pScope.i.i.i = getelementptr inbounds i8, ptr %this, i64 144
  %0 = load ptr, ptr %d_pScope.i.i.i, align 8
  %1 = load ptr, ptr %0, align 8
  %_M_finish.i.i.i.i.i.i.i = getelementptr inbounds i8, ptr %1, i64 16
  %2 = load ptr, ptr %_M_finish.i.i.i.i.i.i.i, align 8
  %add.ptr.i.i.i.i.i.i.i = getelementptr inbounds i8, ptr %2, i64 -8
  %3 = load ptr, ptr %add.ptr.i.i.i.i.i.i.i, align 8
  %cmp.i.i.i.i = icmp eq ptr %3, %0
  br i1 %cmp.i.i.i.i, label %_ZN4cvc57context3CDOIbEaSERKb.exit, label %if.then.i.i.i

if.then.i.i.i:                                    ; preds = %entry
  %d_maybeConflict = getelementptr inbounds i8, ptr %this, i64 136
  tail call void @_ZN4cvc57context10ContextObj6updateEv(ptr noundef nonnull align 8 dereferenceable(40) %d_maybeConflict)
  br label %_ZN4cvc57context3CDOIbEaSERKb.exit

_ZN4cvc57context3CDOIbEaSERKb.exit:               ; preds = %entry, %if.then.i.i.i
  %d_data.i.i = getelementptr inbounds i8, ptr %this, i64 176
  store i8 0, ptr %d_data.i.i, align 8
  ret void
}